	.file	"stringmanipulation.cpp"
	.text
.Ltext0:
	.local	_ZStL8__ioinit
	.comm	_ZStL8__ioinit,1,1
	.section	.rodata
.LC0:
	.string	" String :: display :: ... "
	.section	.text._ZNK6String7displayEv,"axG",@progbits,_ZNK6String7displayEv,comdat
	.align 2
	.weak	_ZNK6String7displayEv
	.type	_ZNK6String7displayEv, @function
_ZNK6String7displayEv:
.LFB957:
	.file 1 "stringmanipulation.cpp"
	.loc 1 15 0
	.cfi_startproc
	.cfi_personality 0x3,__gxx_personality_v0
	pushq	%rbp
.LCFI0:
	.cfi_def_cfa_offset 16
	movq	%rsp, %rbp
	.cfi_offset 6, -16
.LCFI1:
	.cfi_def_cfa_register 6
	pushq	%rbx
	subq	$24, %rsp
	movq	%rdi, -24(%rbp)
	.loc 1 17 0
	movq	-24(%rbp), %rax
	movq	8(%rax), %rbx
	.cfi_offset 3, -24
	movl	$.LC0, %esi
	movl	$_ZSt4cout, %edi
	call	_ZStlsISt11char_traitsIcEERSt13basic_ostreamIcT_ES5_PKc
	movq	%rbx, %rsi
	movq	%rax, %rdi
	call	_ZStlsISt11char_traitsIcEERSt13basic_ostreamIcT_ES5_PKc
	movl	$_ZSt4endlIcSt11char_traitsIcEERSt13basic_ostreamIT_T0_ES6_, %esi
	movq	%rax, %rdi
	call	_ZNSolsEPFRSoS_E
	.loc 1 18 0
	addq	$24, %rsp
	popq	%rbx
	leave
	ret
	.cfi_endproc
.LFE957:
	.size	_ZNK6String7displayEv, .-_ZNK6String7displayEv
	.section	.rodata
.LC1:
	.string	"String :: ~String \n"
	.section	.text._ZN6StringD2Ev,"axG",@progbits,_ZN6StringD2Ev,comdat
	.align 2
	.weak	_ZN6StringD2Ev
	.type	_ZN6StringD2Ev, @function
_ZN6StringD2Ev:
.LFB959:
	.loc 1 20 0
	.cfi_startproc
	.cfi_personality 0x3,__gxx_personality_v0
	pushq	%rbp
.LCFI2:
	.cfi_def_cfa_offset 16
	movq	%rsp, %rbp
	.cfi_offset 6, -16
.LCFI3:
	.cfi_def_cfa_register 6
	subq	$16, %rsp
	movq	%rdi, -8(%rbp)
	.loc 1 21 0
	movq	-8(%rbp), %rax
	movq	$_ZTV6String+16, (%rax)
	.loc 1 22 0
	movl	$.LC1, %esi
	movl	$_ZSt4cout, %edi
	call	_ZStlsISt11char_traitsIcEERSt13basic_ostreamIcT_ES5_PKc
	.loc 1 23 0
	movl	$0, %eax
	testb	%al, %al
	je	.L6
	movq	-8(%rbp), %rax
	movq	%rax, %rdi
	call	_ZdlPv
.L6:
	leave
	ret
	.cfi_endproc
.LFE959:
	.size	_ZN6StringD2Ev, .-_ZN6StringD2Ev
	.section	.text._ZN6StringD1Ev,"axG",@progbits,_ZN6StringD1Ev,comdat
	.align 2
	.weak	_ZN6StringD1Ev
	.type	_ZN6StringD1Ev, @function
_ZN6StringD1Ev:
.LFB960:
	.loc 1 20 0
	.cfi_startproc
	.cfi_personality 0x3,__gxx_personality_v0
	pushq	%rbp
.LCFI4:
	.cfi_def_cfa_offset 16
	movq	%rsp, %rbp
	.cfi_offset 6, -16
.LCFI5:
	.cfi_def_cfa_register 6
	subq	$16, %rsp
	movq	%rdi, -8(%rbp)
	.loc 1 21 0
	movq	-8(%rbp), %rax
	movq	$_ZTV6String+16, (%rax)
	.loc 1 22 0
	movl	$.LC1, %esi
	movl	$_ZSt4cout, %edi
	call	_ZStlsISt11char_traitsIcEERSt13basic_ostreamIcT_ES5_PKc
	.loc 1 23 0
	movl	$0, %eax
	testb	%al, %al
	je	.L10
	movq	-8(%rbp), %rax
	movq	%rax, %rdi
	call	_ZdlPv
.L10:
	leave
	ret
	.cfi_endproc
.LFE960:
	.size	_ZN6StringD1Ev, .-_ZN6StringD1Ev
	.section	.text._ZN6StringD0Ev,"axG",@progbits,_ZN6StringD0Ev,comdat
	.align 2
	.weak	_ZN6StringD0Ev
	.type	_ZN6StringD0Ev, @function
_ZN6StringD0Ev:
.LFB961:
	.loc 1 20 0
	.cfi_startproc
	.cfi_personality 0x3,__gxx_personality_v0
	pushq	%rbp
.LCFI6:
	.cfi_def_cfa_offset 16
	movq	%rsp, %rbp
	.cfi_offset 6, -16
.LCFI7:
	.cfi_def_cfa_register 6
	subq	$16, %rsp
	movq	%rdi, -8(%rbp)
	.loc 1 21 0
	movq	-8(%rbp), %rax
	movq	$_ZTV6String+16, (%rax)
	.loc 1 22 0
	movl	$.LC1, %esi
	movl	$_ZSt4cout, %edi
	call	_ZStlsISt11char_traitsIcEERSt13basic_ostreamIcT_ES5_PKc
	.loc 1 23 0
	movl	$1, %eax
	testb	%al, %al
	je	.L14
	movq	-8(%rbp), %rax
	movq	%rax, %rdi
	call	_ZdlPv
.L14:
	leave
	ret
	.cfi_endproc
.LFE961:
	.size	_ZN6StringD0Ev, .-_ZN6StringD0Ev
	.section	.rodata
.LC2:
	.string	" DerString :: display \n"
	.section	.text._ZNK9DerString7displayEv,"axG",@progbits,_ZNK9DerString7displayEv,comdat
	.align 2
	.weak	_ZNK9DerString7displayEv
	.type	_ZNK9DerString7displayEv, @function
_ZNK9DerString7displayEv:
.LFB962:
	.loc 1 32 0
	.cfi_startproc
	.cfi_personality 0x3,__gxx_personality_v0
	pushq	%rbp
.LCFI8:
	.cfi_def_cfa_offset 16
	movq	%rsp, %rbp
	.cfi_offset 6, -16
.LCFI9:
	.cfi_def_cfa_register 6
	subq	$16, %rsp
	movq	%rdi, -8(%rbp)
	.loc 1 34 0
	movl	$.LC2, %esi
	movl	$_ZSt4cout, %edi
	call	_ZStlsISt11char_traitsIcEERSt13basic_ostreamIcT_ES5_PKc
	.loc 1 35 0
	leave
	ret
	.cfi_endproc
.LFE962:
	.size	_ZNK9DerString7displayEv, .-_ZNK9DerString7displayEv
	.section	.rodata
.LC3:
	.string	"DerString :: ~DerString \n"
.globl _Unwind_Resume
	.section	.text._ZN9DerStringD1Ev,"axG",@progbits,_ZN9DerStringD1Ev,comdat
	.align 2
	.weak	_ZN9DerStringD1Ev
	.type	_ZN9DerStringD1Ev, @function
_ZN9DerStringD1Ev:
.LFB965:
	.loc 1 36 0
	.cfi_startproc
	.cfi_personality 0x3,__gxx_personality_v0
	.cfi_lsda 0x3,.LLSDA965
	pushq	%rbp
.LCFI10:
	.cfi_def_cfa_offset 16
	movq	%rsp, %rbp
	.cfi_offset 6, -16
.LCFI11:
	.cfi_def_cfa_register 6
	pushq	%r12
	pushq	%rbx
	subq	$16, %rsp
	movq	%rdi, -24(%rbp)
	.loc 1 37 0
	movq	-24(%rbp), %rax
	movq	$_ZTV9DerString+16, (%rax)
	.loc 1 38 0
	movl	$.LC3, %esi
	movl	$_ZSt4cout, %edi
.LEHB0:
	.cfi_offset 3, -32
	.cfi_offset 12, -24
	call	_ZStlsISt11char_traitsIcEERSt13basic_ostreamIcT_ES5_PKc
.LEHE0:
	.loc 1 39 0
	movq	-24(%rbp), %rax
	movq	%rax, %rdi
.LEHB1:
	call	_ZN6StringD2Ev
.LEHE1:
	movl	$0, %eax
	testb	%al, %al
	je	.L21
	jmp	.L23
.L22:
.L19:
	movl	%edx, %ebx
	movq	%rax, %r12
	movq	-24(%rbp), %rax
	movq	%rax, %rdi
	call	_ZN6StringD2Ev
	movq	%r12, %rax
	movslq	%ebx,%rdx
	movq	%rax, %rdi
.LEHB2:
	call	_Unwind_Resume
.LEHE2:
.L23:
	movq	-24(%rbp), %rax
	movq	%rax, %rdi
	call	_ZdlPv
.L21:
	addq	$16, %rsp
	popq	%rbx
	popq	%r12
	leave
	ret
	.cfi_endproc
.LFE965:
	.size	_ZN9DerStringD1Ev, .-_ZN9DerStringD1Ev
.globl __gxx_personality_v0
	.section	.gcc_except_table,"a",@progbits
.LLSDA965:
	.byte	0xff
	.byte	0xff
	.byte	0x1
	.uleb128 .LLSDACSE965-.LLSDACSB965
.LLSDACSB965:
	.uleb128 .LEHB0-.LFB965
	.uleb128 .LEHE0-.LEHB0
	.uleb128 .L22-.LFB965
	.uleb128 0x0
	.uleb128 .LEHB1-.LFB965
	.uleb128 .LEHE1-.LEHB1
	.uleb128 0x0
	.uleb128 0x0
	.uleb128 .LEHB2-.LFB965
	.uleb128 .LEHE2-.LEHB2
	.uleb128 0x0
	.uleb128 0x0
.LLSDACSE965:
	.section	.text._ZN9DerStringD1Ev,"axG",@progbits,_ZN9DerStringD1Ev,comdat
	.section	.text._ZN9DerStringD0Ev,"axG",@progbits,_ZN9DerStringD0Ev,comdat
	.align 2
	.weak	_ZN9DerStringD0Ev
	.type	_ZN9DerStringD0Ev, @function
_ZN9DerStringD0Ev:
.LFB966:
	.loc 1 36 0
	.cfi_startproc
	.cfi_personality 0x3,__gxx_personality_v0
	.cfi_lsda 0x3,.LLSDA966
	pushq	%rbp
.LCFI12:
	.cfi_def_cfa_offset 16
	movq	%rsp, %rbp
	.cfi_offset 6, -16
.LCFI13:
	.cfi_def_cfa_register 6
	pushq	%r12
	pushq	%rbx
	subq	$16, %rsp
	movq	%rdi, -24(%rbp)
	.loc 1 37 0
	movq	-24(%rbp), %rax
	movq	$_ZTV9DerString+16, (%rax)
	.loc 1 38 0
	movl	$.LC3, %esi
	movl	$_ZSt4cout, %edi
.LEHB3:
	.cfi_offset 3, -32
	.cfi_offset 12, -24
	call	_ZStlsISt11char_traitsIcEERSt13basic_ostreamIcT_ES5_PKc
.LEHE3:
	.loc 1 39 0
	movq	-24(%rbp), %rax
	movq	%rax, %rdi
.LEHB4:
	call	_ZN6StringD2Ev
.LEHE4:
	movl	$1, %eax
	testb	%al, %al
	je	.L28
	jmp	.L30
.L29:
.L26:
	movl	%edx, %ebx
	movq	%rax, %r12
	movq	-24(%rbp), %rax
	movq	%rax, %rdi
	call	_ZN6StringD2Ev
	movq	%r12, %rax
	movslq	%ebx,%rdx
	movq	%rax, %rdi
.LEHB5:
	call	_Unwind_Resume
.LEHE5:
.L30:
	movq	-24(%rbp), %rax
	movq	%rax, %rdi
	call	_ZdlPv
.L28:
	addq	$16, %rsp
	popq	%rbx
	popq	%r12
	leave
	ret
	.cfi_endproc
.LFE966:
	.size	_ZN9DerStringD0Ev, .-_ZN9DerStringD0Ev
	.section	.gcc_except_table
.LLSDA966:
	.byte	0xff
	.byte	0xff
	.byte	0x1
	.uleb128 .LLSDACSE966-.LLSDACSB966
.LLSDACSB966:
	.uleb128 .LEHB3-.LFB966
	.uleb128 .LEHE3-.LEHB3
	.uleb128 .L29-.LFB966
	.uleb128 0x0
	.uleb128 .LEHB4-.LFB966
	.uleb128 .LEHE4-.LEHB4
	.uleb128 0x0
	.uleb128 0x0
	.uleb128 .LEHB5-.LFB966
	.uleb128 .LEHE5-.LEHB5
	.uleb128 0x0
	.uleb128 0x0
.LLSDACSE966:
	.section	.text._ZN9DerStringD0Ev,"axG",@progbits,_ZN9DerStringD0Ev,comdat
	.section	.rodata
.LC4:
	.string	"\n String:: String\n"
.LC5:
	.string	"default"
	.text
	.align 2
.globl _ZN6StringC2Ev
	.type	_ZN6StringC2Ev, @function
_ZN6StringC2Ev:
.LFB968:
	.loc 1 43 0
	.cfi_startproc
	.cfi_personality 0x3,__gxx_personality_v0
	pushq	%rbp
.LCFI14:
	.cfi_def_cfa_offset 16
	movq	%rsp, %rbp
	.cfi_offset 6, -16
.LCFI15:
	.cfi_def_cfa_register 6
	subq	$16, %rsp
	movq	%rdi, -8(%rbp)
.LBB2:
	.loc 1 43 0
	movq	-8(%rbp), %rax
	movq	$_ZTV6String+16, (%rax)
	.loc 1 45 0
	movl	$.LC4, %esi
	movl	$_ZSt4cout, %edi
	call	_ZStlsISt11char_traitsIcEERSt13basic_ostreamIcT_ES5_PKc
	.loc 1 46 0
	movl	$.LC5, %edi
	call	strdup
	movq	%rax, %rdx
	movq	-8(%rbp), %rax
	movq	%rdx, 8(%rax)
	.loc 1 47 0
	movq	-8(%rbp), %rax
	movl	$7, 16(%rax)
.LBE2:
	.loc 1 48 0
	leave
	ret
	.cfi_endproc
.LFE968:
	.size	_ZN6StringC2Ev, .-_ZN6StringC2Ev
	.align 2
.globl _ZN6StringC1Ev
	.type	_ZN6StringC1Ev, @function
_ZN6StringC1Ev:
.LFB969:
	.loc 1 43 0
	.cfi_startproc
	.cfi_personality 0x3,__gxx_personality_v0
	pushq	%rbp
.LCFI16:
	.cfi_def_cfa_offset 16
	movq	%rsp, %rbp
	.cfi_offset 6, -16
.LCFI17:
	.cfi_def_cfa_register 6
	subq	$16, %rsp
	movq	%rdi, -8(%rbp)
.LBB3:
	.loc 1 43 0
	movq	-8(%rbp), %rax
	movq	$_ZTV6String+16, (%rax)
	.loc 1 45 0
	movl	$.LC4, %esi
	movl	$_ZSt4cout, %edi
	call	_ZStlsISt11char_traitsIcEERSt13basic_ostreamIcT_ES5_PKc
	.loc 1 46 0
	movl	$.LC5, %edi
	call	strdup
	movq	%rax, %rdx
	movq	-8(%rbp), %rax
	movq	%rdx, 8(%rax)
	.loc 1 47 0
	movq	-8(%rbp), %rax
	movl	$7, 16(%rax)
.LBE3:
	.loc 1 48 0
	leave
	ret
	.cfi_endproc
.LFE969:
	.size	_ZN6StringC1Ev, .-_ZN6StringC1Ev
	.section	.text._ZN9DerStringC1Ev,"axG",@progbits,_ZN9DerStringC1Ev,comdat
	.align 2
	.weak	_ZN9DerStringC1Ev
	.type	_ZN9DerStringC1Ev, @function
_ZN9DerStringC1Ev:
.LFB973:
	.loc 1 30 0
	.cfi_startproc
	.cfi_personality 0x3,__gxx_personality_v0
	pushq	%rbp
.LCFI18:
	.cfi_def_cfa_offset 16
	movq	%rsp, %rbp
	.cfi_offset 6, -16
.LCFI19:
	.cfi_def_cfa_register 6
	subq	$16, %rsp
	movq	%rdi, -8(%rbp)
.LBB4:
	.loc 1 30 0
	movq	-8(%rbp), %rax
	movq	%rax, %rdi
	call	_ZN6StringC2Ev
	movq	-8(%rbp), %rax
	movq	$_ZTV9DerString+16, (%rax)
.LBE4:
	leave
	ret
	.cfi_endproc
.LFE973:
	.size	_ZN9DerStringC1Ev, .-_ZN9DerStringC1Ev
	.text
.globl main
	.type	main, @function
main:
.LFB970:
	.loc 1 53 0
	.cfi_startproc
	.cfi_personality 0x3,__gxx_personality_v0
	.cfi_lsda 0x3,.LLSDA970
	pushq	%rbp
.LCFI20:
	.cfi_def_cfa_offset 16
	movq	%rsp, %rbp
	.cfi_offset 6, -16
.LCFI21:
	.cfi_def_cfa_register 6
	pushq	%r13
	pushq	%r12
	pushq	%rbx
	subq	$24, %rsp
.LBB5:
	.loc 1 54 0
	movl	$24, %edi
.LEHB6:
	.cfi_offset 3, -40
	.cfi_offset 12, -32
	.cfi_offset 13, -24
	call	_Znwm
.LEHE6:
	movq	%rax, %rbx
	movq	%rbx, %rax
	movq	%rax, %rdi
.LEHB7:
	call	_ZN9DerStringC1Ev
.LEHE7:
	movq	%rbx, %rax
	movq	%rax, -40(%rbp)
	.loc 1 55 0
	movq	-40(%rbp), %rax
	movq	(%rax), %rax
	movq	(%rax), %rdx
	movq	-40(%rbp), %rax
	movq	%rax, %rdi
.LEHB8:
	call	*%rdx
	.loc 1 56 0
	cmpq	$0, -40(%rbp)
	jne	.L38
	jmp	.L39
.L42:
.L40:
	movl	%edx, %r12d
	movq	%rax, %r13
	.loc 1 54 0
	movq	%rbx, %rdi
	call	_ZdlPv
	movq	%r13, %rax
	movslq	%r12d,%rdx
	movq	%rax, %rdi
	call	_Unwind_Resume
.L38:
	.loc 1 56 0
	movq	-40(%rbp), %rax
	movq	(%rax), %rax
	addq	$16, %rax
	movq	(%rax), %rdx
	movq	-40(%rbp), %rax
	movq	%rax, %rdi
	call	*%rdx
.LEHE8:
.L39:
	.loc 1 57 0
	movl	$0, %eax
.LBE5:
	.loc 1 58 0
	addq	$24, %rsp
	popq	%rbx
	popq	%r12
	popq	%r13
	leave
	ret
	.cfi_endproc
.LFE970:
	.size	main, .-main
	.section	.gcc_except_table
.LLSDA970:
	.byte	0xff
	.byte	0xff
	.byte	0x1
	.uleb128 .LLSDACSE970-.LLSDACSB970
.LLSDACSB970:
	.uleb128 .LEHB6-.LFB970
	.uleb128 .LEHE6-.LEHB6
	.uleb128 0x0
	.uleb128 0x0
	.uleb128 .LEHB7-.LFB970
	.uleb128 .LEHE7-.LEHB7
	.uleb128 .L42-.LFB970
	.uleb128 0x0
	.uleb128 .LEHB8-.LFB970
	.uleb128 .LEHE8-.LEHB8
	.uleb128 0x0
	.uleb128 0x0
.LLSDACSE970:
	.text
	.weak	_ZTV9DerString
	.section	.rodata._ZTV9DerString,"aG",@progbits,_ZTV9DerString,comdat
	.align 32
	.type	_ZTV9DerString, @object
	.size	_ZTV9DerString, 40
_ZTV9DerString:
	.quad	0
	.quad	_ZTI9DerString
	.quad	_ZNK9DerString7displayEv
	.quad	_ZN9DerStringD1Ev
	.quad	_ZN9DerStringD0Ev
	.weak	_ZTV6String
	.section	.rodata._ZTV6String,"aG",@progbits,_ZTV6String,comdat
	.align 32
	.type	_ZTV6String, @object
	.size	_ZTV6String, 40
_ZTV6String:
	.quad	0
	.quad	_ZTI6String
	.quad	_ZNK6String7displayEv
	.quad	_ZN6StringD1Ev
	.quad	_ZN6StringD0Ev
	.weak	_ZTS9DerString
	.section	.rodata._ZTS9DerString,"aG",@progbits,_ZTS9DerString,comdat
	.type	_ZTS9DerString, @object
	.size	_ZTS9DerString, 11
_ZTS9DerString:
	.string	"9DerString"
	.weak	_ZTI9DerString
	.section	.rodata._ZTI9DerString,"aG",@progbits,_ZTI9DerString,comdat
	.align 16
	.type	_ZTI9DerString, @object
	.size	_ZTI9DerString, 24
_ZTI9DerString:
	.quad	_ZTVN10__cxxabiv120__si_class_type_infoE+16
	.quad	_ZTS9DerString
	.quad	_ZTI6String
	.weak	_ZTS6String
	.section	.rodata._ZTS6String,"aG",@progbits,_ZTS6String,comdat
	.type	_ZTS6String, @object
	.size	_ZTS6String, 8
_ZTS6String:
	.string	"6String"
	.weak	_ZTI6String
	.section	.rodata._ZTI6String,"aG",@progbits,_ZTI6String,comdat
	.align 16
	.type	_ZTI6String, @object
	.size	_ZTI6String, 16
_ZTI6String:
	.quad	_ZTVN10__cxxabiv117__class_type_infoE+16
	.quad	_ZTS6String
	.text
	.type	_Z41__static_initialization_and_destruction_0ii, @function
_Z41__static_initialization_and_destruction_0ii:
.LFB982:
	.loc 1 58 0
	.cfi_startproc
	.cfi_personality 0x3,__gxx_personality_v0
	pushq	%rbp
.LCFI22:
	.cfi_def_cfa_offset 16
	movq	%rsp, %rbp
	.cfi_offset 6, -16
.LCFI23:
	.cfi_def_cfa_register 6
	subq	$16, %rsp
	movl	%edi, -4(%rbp)
	movl	%esi, -8(%rbp)
	.loc 1 58 0
	cmpl	$1, -4(%rbp)
	jne	.L45
	cmpl	$65535, -8(%rbp)
	jne	.L45
	.file 2 "/usr/include/c++/4.4/iostream"
	.loc 2 72 0
	movl	$_ZStL8__ioinit, %edi
	call	_ZNSt8ios_base4InitC1Ev
	movl	$_ZNSt8ios_base4InitD1Ev, %eax
	movl	$__dso_handle, %edx
	movl	$_ZStL8__ioinit, %esi
	movq	%rax, %rdi
	call	__cxa_atexit
.L45:
	.loc 1 58 0
	leave
	ret
	.cfi_endproc
.LFE982:
	.size	_Z41__static_initialization_and_destruction_0ii, .-_Z41__static_initialization_and_destruction_0ii
	.type	_GLOBAL__I__ZN6StringC2Ev, @function
_GLOBAL__I__ZN6StringC2Ev:
.LFB983:
	.loc 1 58 0
	.cfi_startproc
	.cfi_personality 0x3,__gxx_personality_v0
	pushq	%rbp
.LCFI24:
	.cfi_def_cfa_offset 16
	movq	%rsp, %rbp
	.cfi_offset 6, -16
.LCFI25:
	.cfi_def_cfa_register 6
	.loc 1 58 0
	movl	$65535, %esi
	movl	$1, %edi
	call	_Z41__static_initialization_and_destruction_0ii
	leave
	ret
	.cfi_endproc
.LFE983:
	.size	_GLOBAL__I__ZN6StringC2Ev, .-_GLOBAL__I__ZN6StringC2Ev
	.section	.ctors,"aw",@progbits
	.align 8
	.quad	_GLOBAL__I__ZN6StringC2Ev
	.weakref	_ZL20__gthrw_pthread_oncePiPFvvE,pthread_once
	.weakref	_ZL27__gthrw_pthread_getspecificj,pthread_getspecific
	.weakref	_ZL27__gthrw_pthread_setspecificjPKv,pthread_setspecific
	.weakref	_ZL22__gthrw_pthread_createPmPK14pthread_attr_tPFPvS3_ES3_,pthread_create
	.weakref	_ZL20__gthrw_pthread_joinmPPv,pthread_join
	.weakref	_ZL21__gthrw_pthread_equalmm,pthread_equal
	.weakref	_ZL20__gthrw_pthread_selfv,pthread_self
	.weakref	_ZL22__gthrw_pthread_detachm,pthread_detach
	.weakref	_ZL22__gthrw_pthread_cancelm,pthread_cancel
	.weakref	_ZL19__gthrw_sched_yieldv,sched_yield
	.weakref	_ZL26__gthrw_pthread_mutex_lockP15pthread_mutex_t,pthread_mutex_lock
	.weakref	_ZL29__gthrw_pthread_mutex_trylockP15pthread_mutex_t,pthread_mutex_trylock
	.weakref	_ZL31__gthrw_pthread_mutex_timedlockP15pthread_mutex_tPK8timespec,pthread_mutex_timedlock
	.weakref	_ZL28__gthrw_pthread_mutex_unlockP15pthread_mutex_t,pthread_mutex_unlock
	.weakref	_ZL26__gthrw_pthread_mutex_initP15pthread_mutex_tPK19pthread_mutexattr_t,pthread_mutex_init
	.weakref	_ZL29__gthrw_pthread_mutex_destroyP15pthread_mutex_t,pthread_mutex_destroy
	.weakref	_ZL30__gthrw_pthread_cond_broadcastP14pthread_cond_t,pthread_cond_broadcast
	.weakref	_ZL27__gthrw_pthread_cond_signalP14pthread_cond_t,pthread_cond_signal
	.weakref	_ZL25__gthrw_pthread_cond_waitP14pthread_cond_tP15pthread_mutex_t,pthread_cond_wait
	.weakref	_ZL30__gthrw_pthread_cond_timedwaitP14pthread_cond_tP15pthread_mutex_tPK8timespec,pthread_cond_timedwait
	.weakref	_ZL28__gthrw_pthread_cond_destroyP14pthread_cond_t,pthread_cond_destroy
	.weakref	_ZL26__gthrw_pthread_key_createPjPFvPvE,pthread_key_create
	.weakref	_ZL26__gthrw_pthread_key_deletej,pthread_key_delete
	.weakref	_ZL30__gthrw_pthread_mutexattr_initP19pthread_mutexattr_t,pthread_mutexattr_init
	.weakref	_ZL33__gthrw_pthread_mutexattr_settypeP19pthread_mutexattr_ti,pthread_mutexattr_settype
	.weakref	_ZL33__gthrw_pthread_mutexattr_destroyP19pthread_mutexattr_t,pthread_mutexattr_destroy
	.text
.Letext0:
	.section	.note.GNU-stack,"",@progbits
